; Function Attrs: mustprogress nofree norecurse nosync nounwind willreturn memory(read, argmem: readwrite, inaccessiblemem: none) uwtable
define hidden void @mbedtls_ssl_reset_in_out_pointers(ptr noundef captures(none) initializes((192, 240), (344, 392)) %0) local_unnamed_addr #7 {
  %2 = load ptr, ptr %0, align 8, !tbaa !18
  %3 = getelementptr inbounds nuw i8, ptr %2, i64 9
  %4 = load i8, ptr %3, align 1, !tbaa !19
  %5 = icmp eq i8 %4, 1
  %6 = getelementptr inbounds nuw i8, ptr %0, i64 336
  %7 = load ptr, ptr %6, align 8, !tbaa !100
  br i1 %5, label %8, label %13

8:                                                ; preds = %1
  %9 = getelementptr inbounds nuw i8, ptr %0, i64 352
  store ptr %7, ptr %9, align 8, !tbaa !96
  %10 = getelementptr inbounds nuw i8, ptr %0, i64 184
  %11 = load ptr, ptr %10, align 8, !tbaa !71
  %12 = getelementptr inbounds nuw i8, ptr %7, i64 3
  br label %mbedtls_ssl_update_out_pointers.exit

13:                                               ; preds = %1
  %14 = getelementptr inbounds nuw i8, ptr %7, i64 8
  %15 = getelementptr inbounds nuw i8, ptr %0, i64 352
  store ptr %14, ptr %15, align 8, !tbaa !96
  %16 = getelementptr inbounds nuw i8, ptr %0, i64 184
  %17 = load ptr, ptr %16, align 8, !tbaa !71
  %18 = getelementptr inbounds nuw i8, ptr %17, i64 8
  br label %mbedtls_ssl_update_out_pointers.exit

mbedtls_ssl_update_out_pointers.exit:             ; preds = %8, %13
  %.sink15 = phi ptr [ %11, %8 ], [ %18, %13 ]
  %.sink14 = phi ptr [ %12, %8 ], [ %7, %13 ]
  %.25.i = phi i64 [ 13, %8 ], [ 5, %13 ]
  %.24.i = phi i64 [ 11, %8 ], [ 3, %13 ]
  %..i = phi i64 [ 3, %8 ], [ -8, %13 ]
  %.sink.i = getelementptr inbounds nuw i8, ptr %7, i64 13
  %.sink13 = getelementptr inbounds nuw i8, ptr %7, i64 11
  %19 = getelementptr inbounds nuw i8, ptr %0, i64 200
  store ptr %.sink15, ptr %19, align 8, !tbaa !70
  %20 = getelementptr inbounds nuw i8, ptr %0, i64 344
  store ptr %.sink14, ptr %20, align 8, !tbaa !102
  %21 = getelementptr inbounds nuw i8, ptr %0, i64 360
  store ptr %.sink13, ptr %21, align 8, !tbaa !103
  %22 = getelementptr inbounds nuw i8, ptr %0, i64 368
  store ptr %.sink13, ptr %22, align 8, !tbaa !104
  %23 = getelementptr inbounds nuw i8, ptr %0, i64 376
  store ptr %.sink.i, ptr %23, align 8, !tbaa !97
  %24 = getelementptr inbounds nuw i8, ptr %0, i64 384
  store ptr %.sink.i, ptr %24, align 8, !tbaa !105
  %25 = getelementptr inbounds i8, ptr %.sink15, i64 %..i
  %26 = getelementptr inbounds nuw i8, ptr %.sink15, i64 %.24.i
  %27 = getelementptr inbounds nuw i8, ptr %.sink15, i64 %.25.i
  %28 = getelementptr inbounds nuw i8, ptr %0, i64 192
  store ptr %25, ptr %28, align 8, !tbaa !38
  %29 = getelementptr inbounds nuw i8, ptr %0, i64 208
  store ptr %26, ptr %29, align 8, !tbaa !151
  %30 = getelementptr inbounds nuw i8, ptr %0, i64 216
  store ptr %26, ptr %30, align 8, !tbaa !152
  %31 = getelementptr inbounds nuw i8, ptr %0, i64 224
  store ptr %27, ptr %31, align 8, !tbaa !153
  %32 = getelementptr inbounds nuw i8, ptr %0, i64 232
  store ptr %27, ptr %32, align 8, !tbaa !137
  ret void
}